; Function Attrs: mustprogress uwtable
define internal noundef zeroext i1 @_ZNSt17_Function_handlerIFvN11OpenImageIO6v3_1_03ROIEEZNS1_L9channels_IsEEbRNS1_8ImageBufERKS5_NS1_4spanIKiLm18446744073709551615EEENS9_IKfLm18446744073709551615EEES2_iEUlS2_E_E10_M_managerERSt9_Any_dataRKSG_St18_Manager_operation(ptr noundef nonnull align 8 captures(none) dereferenceable(16) %0, ptr noundef nonnull readonly align 8 captures(none) dereferenceable(16) %1, i32 noundef %2) #5 align 2 {
  switch i32 %2, label %_ZNSt14_Function_base13_Base_managerIZN11OpenImageIO6v3_1_0L9channels_IsEEbRNS2_8ImageBufERKS4_NS2_4spanIKiLm18446744073709551615EEENS8_IKfLm18446744073709551615EEENS2_3ROIEiEUlSD_E_E10_M_managerERSt9_Any_dataRKSG_St18_Manager_operation.exit [
    i32 0, label %4
    i32 1, label %5
    i32 3, label %8
    i32 2, label %6
  ]

4:                                                ; preds = %3
  store ptr @_ZTIZN11OpenImageIO6v3_1_0L9channels_IsEEbRNS0_8ImageBufERKS2_NS0_4spanIKiLm18446744073709551615EEENS6_IKfLm18446744073709551615EEENS0_3ROIEiEUlSB_E_, ptr %0, align 8, !tbaa !641
  br label %_ZNSt14_Function_base13_Base_managerIZN11OpenImageIO6v3_1_0L9channels_IsEEbRNS2_8ImageBufERKS4_NS2_4spanIKiLm18446744073709551615EEENS8_IKfLm18446744073709551615EEENS2_3ROIEiEUlSD_E_E10_M_managerERSt9_Any_dataRKSG_St18_Manager_operation.exit

5:                                                ; preds = %3
  %.val = load ptr, ptr %1, align 8, !tbaa !115
  store ptr %.val, ptr %0, align 8, !tbaa !115
  br label %_ZNSt14_Function_base13_Base_managerIZN11OpenImageIO6v3_1_0L9channels_IsEEbRNS2_8ImageBufERKS4_NS2_4spanIKiLm18446744073709551615EEENS8_IKfLm18446744073709551615EEENS2_3ROIEiEUlSD_E_E10_M_managerERSt9_Any_dataRKSG_St18_Manager_operation.exit

6:                                                ; preds = %3
  %.val6 = load ptr, ptr %1, align 8
  %7 = tail call noalias noundef nonnull dereferenceable(32) ptr @_Znwm(i64 noundef 32) #29
  tail call void @llvm.memcpy.p0.p0.i64(ptr noundef nonnull align 16 dereferenceable(32) %7, ptr noundef nonnull readonly align 8 dereferenceable(32) %.val6, i64 32, i1 false), !tbaa.struct !677
  store ptr %7, ptr %0, align 8, !tbaa !115
  br label %_ZNSt14_Function_base13_Base_managerIZN11OpenImageIO6v3_1_0L9channels_IsEEbRNS2_8ImageBufERKS4_NS2_4spanIKiLm18446744073709551615EEENS8_IKfLm18446744073709551615EEENS2_3ROIEiEUlSD_E_E10_M_managerERSt9_Any_dataRKSG_St18_Manager_operation.exit

8:                                                ; preds = %3
  %.val7.i = load ptr, ptr %0, align 8, !tbaa !115
  %9 = icmp eq ptr %.val7.i, null
  br i1 %9, label %_ZNSt14_Function_base13_Base_managerIZN11OpenImageIO6v3_1_0L9channels_IsEEbRNS2_8ImageBufERKS4_NS2_4spanIKiLm18446744073709551615EEENS8_IKfLm18446744073709551615EEENS2_3ROIEiEUlSD_E_E10_M_managerERSt9_Any_dataRKSG_St18_Manager_operation.exit, label %10

10:                                               ; preds = %8
  tail call void @_ZdlPvm(ptr noundef nonnull %.val7.i, i64 noundef 32) #27
  br label %_ZNSt14_Function_base13_Base_managerIZN11OpenImageIO6v3_1_0L9channels_IsEEbRNS2_8ImageBufERKS4_NS2_4spanIKiLm18446744073709551615EEENS8_IKfLm18446744073709551615EEENS2_3ROIEiEUlSD_E_E10_M_managerERSt9_Any_dataRKSG_St18_Manager_operation.exit

_ZNSt14_Function_base13_Base_managerIZN11OpenImageIO6v3_1_0L9channels_IsEEbRNS2_8ImageBufERKS4_NS2_4spanIKiLm18446744073709551615EEENS8_IKfLm18446744073709551615EEENS2_3ROIEiEUlSD_E_E10_M_managerERSt9_Any_dataRKSG_St18_Manager_operation.exit: ; preds = %3, %10, %8, %6, %5, %4
  ret i1 false
}